target datalayout = "e-m:e-p270:32:32-p271:32:32-p272:64:64-i64:64-i128:128-f80:128-n8:16:32:64-S128"
target triple = "x86_64-pc-linux-gnu"

; Function Attrs: mustprogress nounwind uwtable
define internal noundef i32 @_ZL3clzm(i64 noundef %0) #5 {
  %2 = alloca i32, align 4
  %3 = alloca i64, align 8
  %4 = alloca i32, align 4
  store i64 %0, ptr %3, align 8
  %5 = load i64, ptr %3, align 8
  %6 = icmp ne i64 %5, 0
  br i1 %6, label %8, label %7

7:                                                ; preds = %1
  store i32 0, ptr %2, align 4
  br label %64

8:                                                ; preds = %1
  store i32 0, ptr %4, align 4
  %9 = load i64, ptr %3, align 8
  %10 = lshr i64 %9, 32
  %11 = icmp eq i64 %10, 0
  br i1 %11, label %12, label %17

12:                                               ; preds = %8
  %13 = load i32, ptr %4, align 4
  %14 = add nsw i32 %13, 32
  store i32 %14, ptr %4, align 4
  %15 = load i64, ptr %3, align 8
  %16 = shl i64 %15, 32
  store i64 %16, ptr %3, align 8
  br label %17

17:                                               ; preds = %12, %8
  %18 = load i64, ptr %3, align 8
  %19 = lshr i64 %18, 48
  %20 = icmp eq i64 %19, 0
  br i1 %20, label %21, label %26

21:                                               ; preds = %17
  %22 = load i32, ptr %4, align 4
  %23 = add nsw i32 %22, 16
  store i32 %23, ptr %4, align 4
  %24 = load i64, ptr %3, align 8
  %25 = shl i64 %24, 16
  store i64 %25, ptr %3, align 8
  br label %26

26:                                               ; preds = %21, %17
  %27 = load i64, ptr %3, align 8
  %28 = lshr i64 %27, 56
  %29 = icmp eq i64 %28, 0
  br i1 %29, label %30, label %35

30:                                               ; preds = %26
  %31 = load i32, ptr %4, align 4
  %32 = add nsw i32 %31, 8
  store i32 %32, ptr %4, align 4
  %33 = load i64, ptr %3, align 8
  %34 = shl i64 %33, 8
  store i64 %34, ptr %3, align 8
  br label %35

35:                                               ; preds = %30, %26
  %36 = load i64, ptr %3, align 8
  %37 = lshr i64 %36, 60
  %38 = icmp eq i64 %37, 0
  br i1 %38, label %39, label %44

39:                                               ; preds = %35
  %40 = load i32, ptr %4, align 4
  %41 = add nsw i32 %40, 4
  store i32 %41, ptr %4, align 4
  %42 = load i64, ptr %3, align 8
  %43 = shl i64 %42, 4
  store i64 %43, ptr %3, align 8
  br label %44

44:                                               ; preds = %39, %35
  %45 = load i64, ptr %3, align 8
  %46 = lshr i64 %45, 62
  %47 = icmp eq i64 %46, 0
  br i1 %47, label %48, label %53

48:                                               ; preds = %44
  %49 = load i32, ptr %4, align 4
  %50 = add nsw i32 %49, 2
  store i32 %50, ptr %4, align 4
  %51 = load i64, ptr %3, align 8
  %52 = shl i64 %51, 2
  store i64 %52, ptr %3, align 8
  br label %53

53:                                               ; preds = %48, %44
  %54 = load i64, ptr %3, align 8
  %55 = lshr i64 %54, 63
  %56 = icmp eq i64 %55, 0
  br i1 %56, label %57, label %62

57:                                               ; preds = %53
  %58 = load i32, ptr %4, align 4
  %59 = add nsw i32 %58, 1
  store i32 %59, ptr %4, align 4
  %60 = load i64, ptr %3, align 8
  %61 = shl i64 %60, 1
  store i64 %61, ptr %3, align 8
  br label %62

62:                                               ; preds = %57, %53
  %63 = load i32, ptr %4, align 4
  store i32 %63, ptr %2, align 4
  br label %64

64:                                               ; preds = %62, %7
  %65 = load i32, ptr %2, align 4
  ret i32 %65
}