; Function Attrs: mustprogress nofree norecurse nosync nounwind willreturn memory(none) uwtable
define internal fastcc noundef i32 @_ZL3clzm(i64 noundef %0) unnamed_addr #22 {
  %.not = icmp eq i64 %0, 0
  br i1 %.not, label %19, label %2

2:                                                ; preds = %1
  %3 = icmp ult i64 %0, 4294967296
  %4 = shl nuw i64 %0, 32
  %spec.select = select i1 %3, i64 %4, i64 %0
  %spec.select28 = select i1 %3, i32 32, i32 0
  %5 = icmp ult i64 %spec.select, 281474976710656
  %6 = or disjoint i32 %spec.select28, 16
  %7 = shl nuw i64 %spec.select, 16
  %.122 = select i1 %5, i64 %7, i64 %spec.select
  %.1 = select i1 %5, i32 %6, i32 %spec.select28
  %8 = icmp ult i64 %.122, 72057594037927936
  %9 = or disjoint i32 %.1, 8
  %10 = shl nuw i64 %.122, 8
  %.223 = select i1 %8, i64 %10, i64 %.122
  %.2 = select i1 %8, i32 %9, i32 %.1
  %11 = icmp ult i64 %.223, 1152921504606846976
  %12 = or disjoint i32 %.2, 4
  %13 = shl nuw i64 %.223, 4
  %.324 = select i1 %11, i64 %13, i64 %.223
  %.3 = select i1 %11, i32 %12, i32 %.2
  %14 = icmp ult i64 %.324, 4611686018427387904
  %15 = add nuw nsw i32 %.3, 2
  %16 = shl nuw i64 %.324, 2
  %.425 = select i1 %14, i64 %16, i64 %.324
  %.4 = select i1 %14, i32 %15, i32 %.3
  %17 = icmp sgt i64 %.425, -1
  %18 = zext i1 %17 to i32
  %.5 = add nuw nsw i32 %.4, %18
  br label %19

19:                                               ; preds = %1, %2
  %.026 = phi i32 [ %.5, %2 ], [ 0, %1 ]
  ret i32 %.026
}